; Function Attrs: mustprogress nofree norecurse nosync nounwind willreturn memory(none) uwtable
define dso_local { ptr, i64 } @_ZN4llvm3omp17getLeafConstructsENS0_9DirectiveE(i32 noundef %0) local_unnamed_addr #2 {
  %2 = icmp ugt i32 %0, 112
  br i1 %2, label %13, label %3

3:                                                ; preds = %1
  %4 = zext nneg i32 %0 to i64
  %5 = getelementptr inbounds [113 x i32], ptr @_ZL26LeafConstructTableOrdering, i64 0, i64 %4
  %6 = load i32, ptr %5, align 4
  %7 = sext i32 %6 to i64
  %8 = getelementptr inbounds [113 x [8 x i32]], ptr @_ZL18LeafConstructTable, i64 0, i64 %7
  %9 = getelementptr inbounds i8, ptr %8, i64 8
  %10 = getelementptr inbounds i8, ptr %8, i64 4
  %11 = load i32, ptr %10, align 4
  %12 = sext i32 %11 to i64
  br label %13

13:                                               ; preds = %1, %3
  %.sroa.0.0 = phi ptr [ %9, %3 ], [ null, %1 ]
  %.sroa.3.0 = phi i64 [ %12, %3 ], [ 0, %1 ]
  %.fca.0.insert = insertvalue { ptr, i64 } poison, ptr %.sroa.0.0, 0
  %.fca.1.insert = insertvalue { ptr, i64 } %.fca.0.insert, i64 %.sroa.3.0, 1
  ret { ptr, i64 } %.fca.1.insert
}